; Function Attrs: mustprogress uwtable
define noundef float @_Z27constantEnsembleTemperatureRK10t_inputrec(ptr noundef nonnull readonly align 8 captures(none) dereferenceable(880) %0) local_unnamed_addr #1 {
  %2 = getelementptr inbounds nuw i8, ptr %0, i64 184
  %3 = load i32, ptr %2, align 8, !tbaa !316
  %4 = icmp eq i32 %3, 1
  br i1 %4, label %6, label %5

5:                                                ; preds = %1
  tail call void @_ZN3gmx8internal13assertHandlerEPKcS2_S2_S2_i(ptr noundef nonnull @.str.530, ptr noundef nonnull @.str.531, ptr noundef nonnull @"__PRETTY_FUNCTION__._ZZ27constantEnsembleTemperatureRK10t_inputrecENK3$_0clEv", ptr noundef nonnull @.str.10, i32 noundef 1738) #23
  unreachable

6:                                                ; preds = %1
  %7 = getelementptr inbounds nuw i8, ptr %0, i64 188
  %8 = load float, ptr %7, align 4, !tbaa !317
  ret float %8
}